; Function Attrs: mustprogress nofree norecurse nosync nounwind willreturn memory(read, inaccessiblemem: none) uwtable
define internal ptr @data_type_string(i16 noundef zeroext %0) #4 {
  %2 = zext i16 %0 to i32
  %3 = load i32, ptr getelementptr inbounds nuw (i8, ptr @pmix_mca_bfrops_v12_component, i64 360), align 8
  %.not = icmp sgt i32 %3, %2
  br i1 %.not, label %pmix_pointer_array_get_item.exit, label %pmix_pointer_array_get_item.exit.thread, !prof !46

pmix_pointer_array_get_item.exit:                 ; preds = %1
  %4 = load ptr, ptr getelementptr inbounds nuw (i8, ptr @pmix_mca_bfrops_v12_component, i64 384), align 8, !tbaa !35
  %5 = zext i16 %0 to i64
  %6 = getelementptr inbounds nuw ptr, ptr %4, i64 %5
  %7 = load ptr, ptr %6, align 8, !tbaa !19
  %8 = icmp eq ptr %7, null
  br i1 %8, label %pmix_pointer_array_get_item.exit.thread, label %9

9:                                                ; preds = %pmix_pointer_array_get_item.exit
  %10 = getelementptr inbounds nuw i8, ptr %7, i64 128
  %11 = load ptr, ptr %10, align 8, !tbaa !22
  br label %pmix_pointer_array_get_item.exit.thread

pmix_pointer_array_get_item.exit.thread:          ; preds = %1, %pmix_pointer_array_get_item.exit, %9
  %.0 = phi ptr [ %11, %9 ], [ null, %pmix_pointer_array_get_item.exit ], [ null, %1 ]
  ret ptr %.0
}